target datalayout = "e-m:e-p270:32:32-p271:32:32-p272:64:64-i64:64-i128:128-f80:128-n8:16:32:64-S128"
target triple = "x86_64-pc-linux-gnu"

; Function Attrs: nounwind uwtable
define dso_local zeroext i1 @RelationInvalidatesSnapshotsOnly(i32 noundef %0) #0 {
  %2 = alloca i1, align 1
  %3 = alloca i32, align 4
  store i32 %0, ptr %3, align 4
  %4 = load i32, ptr %3, align 4
  switch i32 %4, label %6 [
    i32 2964, label %5
    i32 2608, label %5
    i32 1214, label %5
    i32 2609, label %5
    i32 2396, label %5
    i32 3596, label %5
    i32 3592, label %5
  ]

5:                                                ; preds = %1, %1, %1, %1, %1, %1, %1
  store i1 true, ptr %2, align 1
  br label %8

6:                                                ; preds = %1
  br label %7

7:                                                ; preds = %6
  store i1 false, ptr %2, align 1
  br label %8

8:                                                ; preds = %7, %5
  %9 = load i1, ptr %2, align 1
  ret i1 %9
}