; Function Attrs: mustprogress nofree norecurse nosync nounwind willreturn memory(none) uwtable
define dso_local noundef zeroext i1 @RelationInvalidatesSnapshotsOnly(i32 noundef %0) local_unnamed_addr #7 {
  switch i32 %0, label %2 [
    i32 2964, label %3
    i32 2608, label %3
    i32 1214, label %3
    i32 2609, label %3
    i32 2396, label %3
    i32 3596, label %3
    i32 3592, label %3
  ]

2:                                                ; preds = %1
  br label %3

3:                                                ; preds = %1, %1, %1, %1, %1, %1, %1, %2
  %.0 = phi i1 [ false, %2 ], [ true, %1 ], [ true, %1 ], [ true, %1 ], [ true, %1 ], [ true, %1 ], [ true, %1 ], [ true, %1 ]
  ret i1 %.0
}